target datalayout = "e-m:e-p270:32:32-p271:32:32-p272:64:64-i64:64-i128:128-f80:128-n8:16:32:64-S128"
target triple = "x86_64-pc-linux-gnu"

%struct.global_tevent_register_st = type { ptr, ptr }
%struct.thread_event_handler_st = type { ptr, ptr, ptr, ptr }

@.str = private unnamed_addr constant [31 x i8] c"../openssl/crypto/initthread.c\00", align 1
@tevent_register_runonce = internal global i32 0, align 4
@create_global_tevent_register_ossl_ret_ = internal global i32 0, align 4
@glob_tevent_reg = internal global ptr null, align 8

; Function Attrs: inlinehint nounwind uwtable
define internal void @sk_THREAD_EVENT_HANDLER_PTR_free(ptr noundef %0) #3 {
  %2 = alloca ptr, align 8
  store ptr %0, ptr %2, align 8, !tbaa !34
  %3 = load ptr, ptr %2, align 8, !tbaa !34
  call void @OPENSSL_sk_free(ptr noundef %3)
  ret void
}

; Function Attrs: inlinehint nounwind uwtable
define internal ptr @sk_THREAD_EVENT_HANDLER_PTR_value(ptr noundef %0, i32 noundef %1) #3 {
  %3 = alloca ptr, align 8
  %4 = alloca i32, align 4
  store ptr %0, ptr %3, align 8, !tbaa !34
  store i32 %1, ptr %4, align 4, !tbaa !8
  %5 = load ptr, ptr %3, align 8, !tbaa !34
  %6 = load i32, ptr %4, align 4, !tbaa !8
  %7 = call ptr @OPENSSL_sk_value(ptr noundef %5, i32 noundef %6)
  ret ptr %7
}

; Function Attrs: inlinehint nounwind uwtable
define internal i32 @sk_THREAD_EVENT_HANDLER_PTR_num(ptr noundef %0) #3 {
  %2 = alloca ptr, align 8
  store ptr %0, ptr %2, align 8, !tbaa !34
  %3 = load ptr, ptr %2, align 8, !tbaa !34
  %4 = call i32 @OPENSSL_sk_num(ptr noundef %3)
  ret i32 %4
}

; Function Attrs: nounwind uwtable
define internal ptr @get_global_tevent_register() #0 {
  %1 = alloca ptr, align 8
  %2 = call i32 @CRYPTO_THREAD_run_once(ptr noundef @tevent_register_runonce, ptr noundef @create_global_tevent_register_ossl_)
  %3 = icmp ne i32 %2, 0
  br i1 %3, label %4, label %7

4:                                                ; preds = %0
  %5 = load i32, ptr @create_global_tevent_register_ossl_ret_, align 4, !tbaa !8
  %6 = icmp ne i32 %5, 0
  br i1 %6, label %9, label %8

7:                                                ; preds = %0
  br i1 false, label %9, label %8

8:                                                ; preds = %7, %4
  store ptr null, ptr %1, align 8
  br label %11

9:                                                ; preds = %7, %4
  %10 = load ptr, ptr @glob_tevent_reg, align 8, !tbaa !10
  store ptr %10, ptr %1, align 8
  br label %11

11:                                               ; preds = %9, %8
  %12 = load ptr, ptr %1, align 8
  ret ptr %12
}

; Function Attrs: nounwind uwtable
define internal i32 @init_thread_deregister(ptr noundef %0, i32 noundef %1) #0 {
  %3 = alloca i32, align 4
  %4 = alloca ptr, align 8
  %5 = alloca i32, align 4
  %6 = alloca ptr, align 8
  %7 = alloca i32, align 4
  %8 = alloca i32, align 4
  %9 = alloca ptr, align 8
  %10 = alloca ptr, align 8
  %11 = alloca ptr, align 8
  %12 = alloca ptr, align 8
  store ptr %0, ptr %4, align 8, !tbaa !3
  store i32 %1, ptr %5, align 4, !tbaa !8
  call void @llvm.lifetime.start.p0(i64 8, ptr %6) #4
  call void @llvm.lifetime.start.p0(i64 4, ptr %7) #4
  %13 = call ptr @get_global_tevent_register()
  store ptr %13, ptr %6, align 8, !tbaa !10
  %14 = load ptr, ptr %6, align 8, !tbaa !10
  %15 = icmp eq ptr %14, null
  br i1 %15, label %16, label %17

16:                                               ; preds = %2
  store i32 0, ptr %3, align 4
  store i32 1, ptr %8, align 4
  br label %123

17:                                               ; preds = %2
  %18 = load i32, ptr %5, align 4, !tbaa !8
  %19 = icmp ne i32 %18, 0
  br i1 %19, label %28, label %20

20:                                               ; preds = %17
  %21 = load ptr, ptr %6, align 8, !tbaa !10
  %22 = getelementptr inbounds nuw %struct.global_tevent_register_st, ptr %21, i32 0, i32 1
  %23 = load ptr, ptr %22, align 8, !tbaa !12
  %24 = call i32 @CRYPTO_THREAD_write_lock(ptr noundef %23)
  %25 = icmp ne i32 %24, 0
  br i1 %25, label %27, label %26

26:                                               ; preds = %20
  store i32 0, ptr %3, align 4
  store i32 1, ptr %8, align 4
  br label %123

27:                                               ; preds = %20
  br label %29

28:                                               ; preds = %17
  store ptr null, ptr @glob_tevent_reg, align 8, !tbaa !10
  br label %29

29:                                               ; preds = %28, %27
  store i32 0, ptr %7, align 4, !tbaa !8
  br label %30

30:                                               ; preds = %103, %29
  %31 = load i32, ptr %7, align 4, !tbaa !8
  %32 = load ptr, ptr %6, align 8, !tbaa !10
  %33 = getelementptr inbounds nuw %struct.global_tevent_register_st, ptr %32, i32 0, i32 0
  %34 = load ptr, ptr %33, align 8, !tbaa !15
  %35 = call i32 @sk_THREAD_EVENT_HANDLER_PTR_num(ptr noundef %34)
  %36 = icmp slt i32 %31, %35
  br i1 %36, label %37, label %106

37:                                               ; preds = %30
  call void @llvm.lifetime.start.p0(i64 8, ptr %9) #4
  %38 = load ptr, ptr %6, align 8, !tbaa !10
  %39 = getelementptr inbounds nuw %struct.global_tevent_register_st, ptr %38, i32 0, i32 0
  %40 = load ptr, ptr %39, align 8, !tbaa !15
  %41 = load i32, ptr %7, align 4, !tbaa !8
  %42 = call ptr @sk_THREAD_EVENT_HANDLER_PTR_value(ptr noundef %40, i32 noundef %41)
  store ptr %42, ptr %9, align 8, !tbaa !16
  call void @llvm.lifetime.start.p0(i64 8, ptr %10) #4
  store ptr null, ptr %10, align 8, !tbaa !18
  call void @llvm.lifetime.start.p0(i64 8, ptr %11) #4
  store ptr null, ptr %11, align 8, !tbaa !18
  call void @llvm.lifetime.start.p0(i64 8, ptr %12) #4
  %43 = load ptr, ptr %9, align 8, !tbaa !16
  %44 = icmp eq ptr %43, null
  br i1 %44, label %45, label %54

45:                                               ; preds = %37
  %46 = load i32, ptr %5, align 4, !tbaa !8
  %47 = icmp ne i32 %46, 0
  br i1 %47, label %53, label %48

48:                                               ; preds = %45
  %49 = load ptr, ptr %6, align 8, !tbaa !10
  %50 = getelementptr inbounds nuw %struct.global_tevent_register_st, ptr %49, i32 0, i32 1
  %51 = load ptr, ptr %50, align 8, !tbaa !12
  %52 = call i32 @CRYPTO_THREAD_unlock(ptr noundef %51)
  br label %53

53:                                               ; preds = %48, %45
  store i32 0, ptr %3, align 4
  store i32 1, ptr %8, align 4
  br label %100

54:                                               ; preds = %37
  %55 = load ptr, ptr %9, align 8, !tbaa !16
  %56 = load ptr, ptr %55, align 8, !tbaa !18
  store ptr %56, ptr %10, align 8, !tbaa !18
  br label %57

57:                                               ; preds = %89, %83, %54
  %58 = load ptr, ptr %10, align 8, !tbaa !18
  %59 = icmp ne ptr %58, null
  br i1 %59, label %60, label %94

60:                                               ; preds = %57
  %61 = load i32, ptr %5, align 4, !tbaa !8
  %62 = icmp ne i32 %61, 0
  br i1 %62, label %69, label %63

63:                                               ; preds = %60
  %64 = load ptr, ptr %10, align 8, !tbaa !18
  %65 = getelementptr inbounds nuw %struct.thread_event_handler_st, ptr %64, i32 0, i32 0
  %66 = load ptr, ptr %65, align 8, !tbaa !20
  %67 = load ptr, ptr %4, align 8, !tbaa !3
  %68 = icmp eq ptr %66, %67
  br i1 %68, label %69, label %89

69:                                               ; preds = %63, %60
  %70 = load ptr, ptr %11, align 8, !tbaa !18
  %71 = icmp ne ptr %70, null
  br i1 %71, label %72, label %78

72:                                               ; preds = %69
  %73 = load ptr, ptr %10, align 8, !tbaa !18
  %74 = getelementptr inbounds nuw %struct.thread_event_handler_st, ptr %73, i32 0, i32 3
  %75 = load ptr, ptr %74, align 8, !tbaa !22
  %76 = load ptr, ptr %11, align 8, !tbaa !18
  %77 = getelementptr inbounds nuw %struct.thread_event_handler_st, ptr %76, i32 0, i32 3
  store ptr %75, ptr %77, align 8, !tbaa !22
  br label %83

78:                                               ; preds = %69
  %79 = load ptr, ptr %10, align 8, !tbaa !18
  %80 = getelementptr inbounds nuw %struct.thread_event_handler_st, ptr %79, i32 0, i32 3
  %81 = load ptr, ptr %80, align 8, !tbaa !22
  %82 = load ptr, ptr %9, align 8, !tbaa !16
  store ptr %81, ptr %82, align 8, !tbaa !18
  br label %83

83:                                               ; preds = %78, %72
  %84 = load ptr, ptr %10, align 8, !tbaa !18
  store ptr %84, ptr %12, align 8, !tbaa !18
  %85 = load ptr, ptr %10, align 8, !tbaa !18
  %86 = getelementptr inbounds nuw %struct.thread_event_handler_st, ptr %85, i32 0, i32 3
  %87 = load ptr, ptr %86, align 8, !tbaa !22
  store ptr %87, ptr %10, align 8, !tbaa !18
  %88 = load ptr, ptr %12, align 8, !tbaa !18
  call void @CRYPTO_free(ptr noundef %88, ptr noundef @.str, i32 noundef 457)
  br label %57, !llvm.loop !23

89:                                               ; preds = %63
  %90 = load ptr, ptr %10, align 8, !tbaa !18
  store ptr %90, ptr %11, align 8, !tbaa !18
  %91 = load ptr, ptr %10, align 8, !tbaa !18
  %92 = getelementptr inbounds nuw %struct.thread_event_handler_st, ptr %91, i32 0, i32 3
  %93 = load ptr, ptr %92, align 8, !tbaa !22
  store ptr %93, ptr %10, align 8, !tbaa !18
  br label %57, !llvm.loop !23

94:                                               ; preds = %57
  %95 = load i32, ptr %5, align 4, !tbaa !8
  %96 = icmp ne i32 %95, 0
  br i1 %96, label %97, label %99

97:                                               ; preds = %94
  %98 = load ptr, ptr %9, align 8, !tbaa !16
  call void @CRYPTO_free(ptr noundef %98, ptr noundef @.str, i32 noundef 464)
  br label %99

99:                                               ; preds = %97, %94
  store i32 0, ptr %8, align 4
  br label %100

100:                                              ; preds = %99, %53
  call void @llvm.lifetime.end.p0(i64 8, ptr %12) #4
  call void @llvm.lifetime.end.p0(i64 8, ptr %11) #4
  call void @llvm.lifetime.end.p0(i64 8, ptr %10) #4
  call void @llvm.lifetime.end.p0(i64 8, ptr %9) #4
  %101 = load i32, ptr %8, align 4
  switch i32 %101, label %123 [
    i32 0, label %102
  ]

102:                                              ; preds = %100
  br label %103

103:                                              ; preds = %102
  %104 = load i32, ptr %7, align 4, !tbaa !8
  %105 = add nsw i32 %104, 1
  store i32 %105, ptr %7, align 4, !tbaa !8
  br label %30, !llvm.loop !25

106:                                              ; preds = %30
  %107 = load i32, ptr %5, align 4, !tbaa !8
  %108 = icmp ne i32 %107, 0
  br i1 %108, label %109, label %117

109:                                              ; preds = %106
  %110 = load ptr, ptr %6, align 8, !tbaa !10
  %111 = getelementptr inbounds nuw %struct.global_tevent_register_st, ptr %110, i32 0, i32 1
  %112 = load ptr, ptr %111, align 8, !tbaa !12
  call void @CRYPTO_THREAD_lock_free(ptr noundef %112)
  %113 = load ptr, ptr %6, align 8, !tbaa !10
  %114 = getelementptr inbounds nuw %struct.global_tevent_register_st, ptr %113, i32 0, i32 0
  %115 = load ptr, ptr %114, align 8, !tbaa !15
  call void @sk_THREAD_EVENT_HANDLER_PTR_free(ptr noundef %115)
  %116 = load ptr, ptr %6, align 8, !tbaa !10
  call void @CRYPTO_free(ptr noundef %116, ptr noundef @.str, i32 noundef 469)
  br label %122

117:                                              ; preds = %106
  %118 = load ptr, ptr %6, align 8, !tbaa !10
  %119 = getelementptr inbounds nuw %struct.global_tevent_register_st, ptr %118, i32 0, i32 1
  %120 = load ptr, ptr %119, align 8, !tbaa !12
  %121 = call i32 @CRYPTO_THREAD_unlock(ptr noundef %120)
  br label %122

122:                                              ; preds = %117, %109
  store i32 1, ptr %3, align 4
  store i32 1, ptr %8, align 4
  br label %123

123:                                              ; preds = %122, %100, %26, %16
  call void @llvm.lifetime.end.p0(i64 4, ptr %7) #4
  call void @llvm.lifetime.end.p0(i64 8, ptr %6) #4
  %124 = load i32, ptr %3, align 4
  ret i32 %124
}