; Function Attrs: nounwind uwtable
define internal fastcc range(i32 0, 2) i32 @init_thread_deregister(ptr noundef readnone captures(address) %0, i32 noundef range(i32 0, 2) %1) unnamed_addr #0 {
  %3 = tail call i32 @CRYPTO_THREAD_run_once(ptr noundef nonnull @tevent_register_runonce, ptr noundef nonnull @create_global_tevent_register_ossl_) #2
  %4 = icmp eq i32 %3, 0
  %5 = load i32, ptr @create_global_tevent_register_ossl_ret_, align 4
  %6 = icmp eq i32 %5, 0
  %or.cond.i.not = select i1 %4, i1 true, i1 %6
  %7 = load ptr, ptr @glob_tevent_reg, align 8
  %8 = icmp eq ptr %7, null
  %9 = select i1 %or.cond.i.not, i1 true, i1 %8
  br i1 %9, label %.thread, label %10

10:                                               ; preds = %2
  %.not = icmp eq i32 %1, 0
  br i1 %.not, label %11, label %15

11:                                               ; preds = %10
  %12 = getelementptr inbounds nuw i8, ptr %7, i64 8
  %13 = load ptr, ptr %12, align 8, !tbaa !3
  %14 = tail call i32 @CRYPTO_THREAD_write_lock(ptr noundef %13) #2
  %.not40 = icmp eq i32 %14, 0
  br i1 %.not40, label %.thread, label %16

15:                                               ; preds = %10
  store ptr null, ptr @glob_tevent_reg, align 8, !tbaa !18
  br label %16

16:                                               ; preds = %11, %15
  %17 = load ptr, ptr %7, align 8, !tbaa !20
  %18 = tail call i32 @OPENSSL_sk_num(ptr noundef %17) #2
  %19 = icmp sgt i32 %18, 0
  br i1 %19, label %.lr.ph69, label %._crit_edge70

.lr.ph69:                                         ; preds = %16, %46
  %.03667 = phi i32 [ %47, %46 ], [ 0, %16 ]
  %20 = load ptr, ptr %7, align 8, !tbaa !20
  %21 = tail call ptr @OPENSSL_sk_value(ptr noundef %20, i32 noundef %.03667) #2
  %.not43 = icmp eq ptr %21, null
  br i1 %.not43, label %22, label %27

22:                                               ; preds = %.lr.ph69
  br i1 %.not, label %23, label %.thread

23:                                               ; preds = %22
  %24 = getelementptr inbounds nuw i8, ptr %7, i64 8
  %25 = load ptr, ptr %24, align 8, !tbaa !3
  %26 = tail call i32 @CRYPTO_THREAD_unlock(ptr noundef %25) #2
  br label %.thread

27:                                               ; preds = %.lr.ph69
  %28 = load ptr, ptr %21, align 8, !tbaa !9
  %.not414864 = icmp eq ptr %28, null
  br i1 %.not414864, label %.outer._crit_edge, label %.lr.ph

.lr.ph:                                           ; preds = %27, %.outer
  %.034.ph66 = phi ptr [ %.us-phi, %.outer ], [ null, %27 ]
  %.035.ph65 = phi ptr [ %45, %.outer ], [ %28, %27 ]
  %.not42 = icmp eq ptr %.034.ph66, null
  %29 = getelementptr inbounds nuw i8, ptr %.034.ph66, i64 24
  br i1 %.not42, label %.lr.ph.split.us, label %.lr.ph.split

.lr.ph.split.us:                                  ; preds = %.lr.ph
  br i1 %.not, label %.lr.ph.split.us.split.us, label %.lr.ph.split.us.split

.lr.ph.split.us.split.us:                         ; preds = %.lr.ph.split.us, %32
  %.03549.us.us = phi ptr [ %34, %32 ], [ %.035.ph65, %.lr.ph.split.us ]
  %30 = load ptr, ptr %.03549.us.us, align 8, !tbaa !21
  %31 = icmp eq ptr %30, %0
  br i1 %31, label %32, label %.outer

32:                                               ; preds = %.lr.ph.split.us.split.us
  %33 = getelementptr inbounds nuw i8, ptr %.03549.us.us, i64 24
  %34 = load ptr, ptr %33, align 8, !tbaa !14
  store ptr %34, ptr %21, align 8, !tbaa !9
  tail call void @CRYPTO_free(ptr noundef nonnull %.03549.us.us, ptr noundef nonnull @.str, i32 noundef 457) #2
  %.not41.us.us = icmp eq ptr %34, null
  br i1 %.not41.us.us, label %.outer._crit_edge, label %.lr.ph.split.us.split.us, !llvm.loop !22

.lr.ph.split.us.split:                            ; preds = %.lr.ph.split.us, %.lr.ph.split.us.split
  %.03549.us = phi ptr [ %36, %.lr.ph.split.us.split ], [ %.035.ph65, %.lr.ph.split.us ]
  %35 = getelementptr inbounds nuw i8, ptr %.03549.us, i64 24
  %36 = load ptr, ptr %35, align 8, !tbaa !14
  store ptr %36, ptr %21, align 8, !tbaa !9
  tail call void @CRYPTO_free(ptr noundef nonnull %.03549.us, ptr noundef nonnull @.str, i32 noundef 457) #2
  %.not41.us = icmp eq ptr %36, null
  br i1 %.not41.us, label %.outer._crit_edge, label %.lr.ph.split.us.split, !llvm.loop !22

.lr.ph.split:                                     ; preds = %.lr.ph
  br i1 %.not, label %.lr.ph.split.split.us, label %.lr.ph.split.split

.lr.ph.split.split.us:                            ; preds = %.lr.ph.split, %39
  %.03549.us50 = phi ptr [ %41, %39 ], [ %.035.ph65, %.lr.ph.split ]
  %37 = load ptr, ptr %.03549.us50, align 8, !tbaa !21
  %38 = icmp eq ptr %37, %0
  br i1 %38, label %39, label %.outer

39:                                               ; preds = %.lr.ph.split.split.us
  %40 = getelementptr inbounds nuw i8, ptr %.03549.us50, i64 24
  %41 = load ptr, ptr %40, align 8, !tbaa !14
  store ptr %41, ptr %29, align 8, !tbaa !14
  tail call void @CRYPTO_free(ptr noundef nonnull %.03549.us50, ptr noundef nonnull @.str, i32 noundef 457) #2
  %.not41.us51 = icmp eq ptr %41, null
  br i1 %.not41.us51, label %.outer._crit_edge, label %.lr.ph.split.split.us, !llvm.loop !22

.lr.ph.split.split:                               ; preds = %.lr.ph.split, %.lr.ph.split.split
  %.03549 = phi ptr [ %43, %.lr.ph.split.split ], [ %.035.ph65, %.lr.ph.split ]
  %42 = getelementptr inbounds nuw i8, ptr %.03549, i64 24
  %43 = load ptr, ptr %42, align 8, !tbaa !14
  store ptr %43, ptr %29, align 8, !tbaa !14
  tail call void @CRYPTO_free(ptr noundef nonnull %.03549, ptr noundef nonnull @.str, i32 noundef 457) #2
  %.not41 = icmp eq ptr %43, null
  br i1 %.not41, label %.outer._crit_edge, label %.lr.ph.split.split, !llvm.loop !22

.outer:                                           ; preds = %.lr.ph.split.split.us, %.lr.ph.split.us.split.us
  %.us-phi = phi ptr [ %.03549.us.us, %.lr.ph.split.us.split.us ], [ %.03549.us50, %.lr.ph.split.split.us ]
  %44 = getelementptr inbounds nuw i8, ptr %.us-phi, i64 24
  %45 = load ptr, ptr %44, align 8, !tbaa !14
  %.not4148 = icmp eq ptr %45, null
  br i1 %.not4148, label %.outer._crit_edge, label %.lr.ph, !llvm.loop !22

.outer._crit_edge:                                ; preds = %.outer, %.lr.ph.split.split, %.lr.ph.split.us.split, %39, %32, %27
  br i1 %.not, label %46, label %.thread44

.thread44:                                        ; preds = %.outer._crit_edge
  tail call void @CRYPTO_free(ptr noundef nonnull %21, ptr noundef nonnull @.str, i32 noundef 464) #2
  br label %46

46:                                               ; preds = %.outer._crit_edge, %.thread44
  %47 = add nuw nsw i32 %.03667, 1
  %48 = load ptr, ptr %7, align 8, !tbaa !20
  %49 = tail call i32 @OPENSSL_sk_num(ptr noundef %48) #2
  %50 = icmp slt i32 %47, %49
  br i1 %50, label %.lr.ph69, label %._crit_edge70, !llvm.loop !23

._crit_edge70:                                    ; preds = %46, %16
  %51 = getelementptr inbounds nuw i8, ptr %7, i64 8
  %52 = load ptr, ptr %51, align 8, !tbaa !3
  br i1 %.not, label %55, label %53

53:                                               ; preds = %._crit_edge70
  tail call void @CRYPTO_THREAD_lock_free(ptr noundef %52) #2
  %54 = load ptr, ptr %7, align 8, !tbaa !20
  tail call void @OPENSSL_sk_free(ptr noundef %54) #2
  tail call void @CRYPTO_free(ptr noundef nonnull %7, ptr noundef nonnull @.str, i32 noundef 469) #2
  br label %.thread

55:                                               ; preds = %._crit_edge70
  %56 = tail call i32 @CRYPTO_THREAD_unlock(ptr noundef %52) #2
  br label %.thread

.thread:                                          ; preds = %23, %22, %53, %55, %11, %2
  %.0 = phi i32 [ 0, %2 ], [ 0, %11 ], [ 1, %55 ], [ 1, %53 ], [ 0, %22 ], [ 0, %23 ]
  ret i32 %.0
}